target datalayout = "e-m:e-p270:32:32-p271:32:32-p272:64:64-i64:64-i128:128-f80:128-n8:16:32:64-S128"
target triple = "x86_64-pc-linux-gnu"

%"class.OpenColorIO_v2_5dev::CDLTransformImpl" = type { %"class.OpenColorIO_v2_5dev::CDLTransform", %"class.std::__cxx11::basic_string", %"class.OpenColorIO_v2_5dev::CDLOpData" }
%"class.OpenColorIO_v2_5dev::CDLTransform" = type { %"class.OpenColorIO_v2_5dev::Transform" }
%"class.OpenColorIO_v2_5dev::Transform" = type { ptr }
%"class.std::__cxx11::basic_string" = type { %"struct.std::__cxx11::basic_string<char>::_Alloc_hider", i64, %union.anon }
%"struct.std::__cxx11::basic_string<char>::_Alloc_hider" = type { ptr }
%union.anon = type { i64, [8 x i8] }
%"class.OpenColorIO_v2_5dev::CDLOpData" = type { %"class.OpenColorIO_v2_5dev::OpData", i32, %"struct.OpenColorIO_v2_5dev::CDLOpData::ChannelParams", %"struct.OpenColorIO_v2_5dev::CDLOpData::ChannelParams", %"struct.OpenColorIO_v2_5dev::CDLOpData::ChannelParams", double }
%"class.OpenColorIO_v2_5dev::OpData" = type { ptr, %"class.std::mutex", %"class.OpenColorIO_v2_5dev::FormatMetadataImpl" }
%"class.std::mutex" = type { %"class.std::__mutex_base" }
%"class.std::__mutex_base" = type { %union.pthread_mutex_t }
%union.pthread_mutex_t = type { %struct.__pthread_mutex_s }
%struct.__pthread_mutex_s = type { i32, i32, i32, i32, i32, i16, i16, %struct.__pthread_internal_list }
%struct.__pthread_internal_list = type { ptr, ptr }
%"class.OpenColorIO_v2_5dev::FormatMetadataImpl" = type { %"class.OpenColorIO_v2_5dev::FormatMetadata", %"class.std::__cxx11::basic_string", %"class.std::__cxx11::basic_string", %"class.std::vector", %"class.std::vector.3" }
%"class.OpenColorIO_v2_5dev::FormatMetadata" = type { ptr }
%"class.std::vector" = type { %"struct.std::_Vector_base" }
%"struct.std::_Vector_base" = type { %"struct.std::_Vector_base<std::pair<std::__cxx11::basic_string<char>, std::__cxx11::basic_string<char>>, std::allocator<std::pair<std::__cxx11::basic_string<char>, std::__cxx11::basic_string<char>>>>::_Vector_impl" }
%"struct.std::_Vector_base<std::pair<std::__cxx11::basic_string<char>, std::__cxx11::basic_string<char>>, std::allocator<std::pair<std::__cxx11::basic_string<char>, std::__cxx11::basic_string<char>>>>::_Vector_impl" = type { %"struct.std::_Vector_base<std::pair<std::__cxx11::basic_string<char>, std::__cxx11::basic_string<char>>, std::allocator<std::pair<std::__cxx11::basic_string<char>, std::__cxx11::basic_string<char>>>>::_Vector_impl_data" }
%"struct.std::_Vector_base<std::pair<std::__cxx11::basic_string<char>, std::__cxx11::basic_string<char>>, std::allocator<std::pair<std::__cxx11::basic_string<char>, std::__cxx11::basic_string<char>>>>::_Vector_impl_data" = type { ptr, ptr, ptr }
%"class.std::vector.3" = type { %"struct.std::_Vector_base.4" }
%"struct.std::_Vector_base.4" = type { %"struct.std::_Vector_base<OpenColorIO_v2_5dev::FormatMetadataImpl, std::allocator<OpenColorIO_v2_5dev::FormatMetadataImpl>>::_Vector_impl" }
%"struct.std::_Vector_base<OpenColorIO_v2_5dev::FormatMetadataImpl, std::allocator<OpenColorIO_v2_5dev::FormatMetadataImpl>>::_Vector_impl" = type { %"struct.std::_Vector_base<OpenColorIO_v2_5dev::FormatMetadataImpl, std::allocator<OpenColorIO_v2_5dev::FormatMetadataImpl>>::_Vector_impl_data" }
%"struct.std::_Vector_base<OpenColorIO_v2_5dev::FormatMetadataImpl, std::allocator<OpenColorIO_v2_5dev::FormatMetadataImpl>>::_Vector_impl_data" = type { ptr, ptr, ptr }
%"struct.OpenColorIO_v2_5dev::CDLOpData::ChannelParams" = type { [3 x double] }

@_ZTIN19OpenColorIO_v2_5dev9ExceptionE = external constant ptr
@.str.12 = private unnamed_addr constant [36 x i8] c"CDLTransform: Invalid 'SOP' pointer\00", align 1
@.str.21 = private unnamed_addr constant [22 x i8] c"Index is out of range\00", align 1

; Function Attrs: mustprogress nounwind uwtable
define linkonce_odr hidden noundef nonnull align 8 dereferenceable(24) ptr @_ZNK19OpenColorIO_v2_5dev9CDLOpData14getPowerParamsEv(ptr noundef nonnull align 8 dereferenceable(256) %0) #8 comdat align 2 {
  %2 = alloca ptr, align 8
  store ptr %0, ptr %2, align 8, !tbaa !63
  %3 = load ptr, ptr %2, align 8
  %4 = getelementptr inbounds nuw %"class.OpenColorIO_v2_5dev::CDLOpData", ptr %3, i32 0, i32 4
  ret ptr %4
}

; Function Attrs: mustprogress nounwind uwtable
define linkonce_odr hidden noundef nonnull align 8 dereferenceable(24) ptr @_ZNK19OpenColorIO_v2_5dev9CDLOpData15getOffsetParamsEv(ptr noundef nonnull align 8 dereferenceable(256) %0) #8 comdat align 2 {
  %2 = alloca ptr, align 8
  store ptr %0, ptr %2, align 8, !tbaa !63
  %3 = load ptr, ptr %2, align 8
  %4 = getelementptr inbounds nuw %"class.OpenColorIO_v2_5dev::CDLOpData", ptr %3, i32 0, i32 3
  ret ptr %4
}

; Function Attrs: mustprogress uwtable
define linkonce_odr hidden noundef double @_ZNK19OpenColorIO_v2_5dev9CDLOpData13ChannelParamsixEj(ptr noundef nonnull align 8 dereferenceable(24) %0, i32 noundef %1) #4 comdat align 2 personality ptr @__gxx_personality_v0 {
  %3 = alloca ptr, align 8
  %4 = alloca i32, align 4
  %5 = alloca ptr, align 8
  %6 = alloca i32, align 4
  store ptr %0, ptr %3, align 8, !tbaa !99
  store i32 %1, ptr %4, align 4, !tbaa !21
  %7 = load ptr, ptr %3, align 8
  %8 = load i32, ptr %4, align 4, !tbaa !21
  %9 = icmp uge i32 %8, 3
  br i1 %9, label %10, label %17

10:                                               ; preds = %2
  %11 = call ptr @__cxa_allocate_exception(i64 16) #3
  invoke void @_ZN19OpenColorIO_v2_5dev9ExceptionC1EPKc(ptr noundef nonnull align 8 dereferenceable(16) %11, ptr noundef @.str.21)
          to label %12 unwind label %13

12:                                               ; preds = %10
  call void @__cxa_throw(ptr %11, ptr @_ZTIN19OpenColorIO_v2_5dev9ExceptionE, ptr @_ZN19OpenColorIO_v2_5dev9ExceptionD1Ev) #24
  unreachable

13:                                               ; preds = %10
  %14 = landingpad { ptr, i32 }
          cleanup
  %15 = extractvalue { ptr, i32 } %14, 0
  store ptr %15, ptr %5, align 8
  %16 = extractvalue { ptr, i32 } %14, 1
  store i32 %16, ptr %6, align 4
  call void @__cxa_free_exception(ptr %11) #3
  br label %23

17:                                               ; preds = %2
  %18 = getelementptr inbounds nuw %"struct.OpenColorIO_v2_5dev::CDLOpData::ChannelParams", ptr %7, i32 0, i32 0
  %19 = load i32, ptr %4, align 4, !tbaa !21
  %20 = zext i32 %19 to i64
  %21 = getelementptr inbounds nuw [3 x double], ptr %18, i64 0, i64 %20
  %22 = load double, ptr %21, align 8, !tbaa !98
  ret double %22

23:                                               ; preds = %13
  %24 = load ptr, ptr %5, align 8
  %25 = load i32, ptr %6, align 4
  %26 = insertvalue { ptr, i32 } poison, ptr %24, 0
  %27 = insertvalue { ptr, i32 } %26, i32 %25, 1
  resume { ptr, i32 } %27
}

; Function Attrs: mustprogress nounwind uwtable
define linkonce_odr hidden noundef nonnull align 8 dereferenceable(24) ptr @_ZNK19OpenColorIO_v2_5dev9CDLOpData14getSlopeParamsEv(ptr noundef nonnull align 8 dereferenceable(256) %0) #8 comdat align 2 {
  %2 = alloca ptr, align 8
  store ptr %0, ptr %2, align 8, !tbaa !63
  %3 = load ptr, ptr %2, align 8
  %4 = getelementptr inbounds nuw %"class.OpenColorIO_v2_5dev::CDLOpData", ptr %3, i32 0, i32 2
  ret ptr %4
}

; Function Attrs: mustprogress nounwind uwtable
define linkonce_odr hidden noundef nonnull align 8 dereferenceable(256) ptr @_ZNK19OpenColorIO_v2_5dev16CDLTransformImpl4dataEv(ptr noundef nonnull align 8 dereferenceable(296) %0) #8 comdat align 2 {
  %2 = alloca ptr, align 8
  store ptr %0, ptr %2, align 8, !tbaa !3
  %3 = load ptr, ptr %2, align 8
  %4 = getelementptr inbounds nuw %"class.OpenColorIO_v2_5dev::CDLTransformImpl", ptr %3, i32 0, i32 2
  ret ptr %4
}

; Function Attrs: mustprogress uwtable
define hidden void @_ZNK19OpenColorIO_v2_5dev16CDLTransformImpl6getSOPEPd(ptr noundef nonnull align 8 dereferenceable(296) %0, ptr noundef %1) unnamed_addr #4 align 2 personality ptr @__gxx_personality_v0 {
  %3 = alloca ptr, align 8
  %4 = alloca ptr, align 8
  %5 = alloca ptr, align 8
  %6 = alloca i32, align 4
  %7 = alloca ptr, align 8
  %8 = alloca ptr, align 8
  %9 = alloca ptr, align 8
  store ptr %0, ptr %3, align 8, !tbaa !3
  store ptr %1, ptr %4, align 8, !tbaa !96
  %10 = load ptr, ptr %3, align 8
  %11 = load ptr, ptr %4, align 8, !tbaa !96
  %12 = icmp ne ptr %11, null
  br i1 %12, label %20, label %13

13:                                               ; preds = %2
  %14 = call ptr @__cxa_allocate_exception(i64 16) #3
  invoke void @_ZN19OpenColorIO_v2_5dev9ExceptionC1EPKc(ptr noundef nonnull align 8 dereferenceable(16) %14, ptr noundef @.str.12)
          to label %15 unwind label %16

15:                                               ; preds = %13
  call void @__cxa_throw(ptr %14, ptr @_ZTIN19OpenColorIO_v2_5dev9ExceptionE, ptr @_ZN19OpenColorIO_v2_5dev9ExceptionD1Ev) #24
  unreachable

16:                                               ; preds = %13
  %17 = landingpad { ptr, i32 }
          cleanup
  %18 = extractvalue { ptr, i32 } %17, 0
  store ptr %18, ptr %5, align 8
  %19 = extractvalue { ptr, i32 } %17, 1
  store i32 %19, ptr %6, align 4
  call void @__cxa_free_exception(ptr %14) #3
  br label %63

20:                                               ; preds = %2
  call void @llvm.lifetime.start.p0(i64 8, ptr %7) #3
  %21 = call noundef nonnull align 8 dereferenceable(256) ptr @_ZNK19OpenColorIO_v2_5dev16CDLTransformImpl4dataEv(ptr noundef nonnull align 8 dereferenceable(296) %10) #3
  %22 = call noundef nonnull align 8 dereferenceable(24) ptr @_ZNK19OpenColorIO_v2_5dev9CDLOpData14getSlopeParamsEv(ptr noundef nonnull align 8 dereferenceable(256) %21)
  store ptr %22, ptr %7, align 8, !tbaa !99
  %23 = load ptr, ptr %7, align 8, !tbaa !99
  %24 = call noundef double @_ZNK19OpenColorIO_v2_5dev9CDLOpData13ChannelParamsixEj(ptr noundef nonnull align 8 dereferenceable(24) %23, i32 noundef 0)
  %25 = load ptr, ptr %4, align 8, !tbaa !96
  %26 = getelementptr inbounds double, ptr %25, i64 0
  store double %24, ptr %26, align 8, !tbaa !98
  %27 = load ptr, ptr %7, align 8, !tbaa !99
  %28 = call noundef double @_ZNK19OpenColorIO_v2_5dev9CDLOpData13ChannelParamsixEj(ptr noundef nonnull align 8 dereferenceable(24) %27, i32 noundef 1)
  %29 = load ptr, ptr %4, align 8, !tbaa !96
  %30 = getelementptr inbounds double, ptr %29, i64 1
  store double %28, ptr %30, align 8, !tbaa !98
  %31 = load ptr, ptr %7, align 8, !tbaa !99
  %32 = call noundef double @_ZNK19OpenColorIO_v2_5dev9CDLOpData13ChannelParamsixEj(ptr noundef nonnull align 8 dereferenceable(24) %31, i32 noundef 2)
  %33 = load ptr, ptr %4, align 8, !tbaa !96
  %34 = getelementptr inbounds double, ptr %33, i64 2
  store double %32, ptr %34, align 8, !tbaa !98
  call void @llvm.lifetime.start.p0(i64 8, ptr %8) #3
  %35 = call noundef nonnull align 8 dereferenceable(256) ptr @_ZNK19OpenColorIO_v2_5dev16CDLTransformImpl4dataEv(ptr noundef nonnull align 8 dereferenceable(296) %10) #3
  %36 = call noundef nonnull align 8 dereferenceable(24) ptr @_ZNK19OpenColorIO_v2_5dev9CDLOpData15getOffsetParamsEv(ptr noundef nonnull align 8 dereferenceable(256) %35)
  store ptr %36, ptr %8, align 8, !tbaa !99
  %37 = load ptr, ptr %8, align 8, !tbaa !99
  %38 = call noundef double @_ZNK19OpenColorIO_v2_5dev9CDLOpData13ChannelParamsixEj(ptr noundef nonnull align 8 dereferenceable(24) %37, i32 noundef 0)
  %39 = load ptr, ptr %4, align 8, !tbaa !96
  %40 = getelementptr inbounds double, ptr %39, i64 3
  store double %38, ptr %40, align 8, !tbaa !98
  %41 = load ptr, ptr %8, align 8, !tbaa !99
  %42 = call noundef double @_ZNK19OpenColorIO_v2_5dev9CDLOpData13ChannelParamsixEj(ptr noundef nonnull align 8 dereferenceable(24) %41, i32 noundef 1)
  %43 = load ptr, ptr %4, align 8, !tbaa !96
  %44 = getelementptr inbounds double, ptr %43, i64 4
  store double %42, ptr %44, align 8, !tbaa !98
  %45 = load ptr, ptr %8, align 8, !tbaa !99
  %46 = call noundef double @_ZNK19OpenColorIO_v2_5dev9CDLOpData13ChannelParamsixEj(ptr noundef nonnull align 8 dereferenceable(24) %45, i32 noundef 2)
  %47 = load ptr, ptr %4, align 8, !tbaa !96
  %48 = getelementptr inbounds double, ptr %47, i64 5
  store double %46, ptr %48, align 8, !tbaa !98
  call void @llvm.lifetime.start.p0(i64 8, ptr %9) #3
  %49 = call noundef nonnull align 8 dereferenceable(256) ptr @_ZNK19OpenColorIO_v2_5dev16CDLTransformImpl4dataEv(ptr noundef nonnull align 8 dereferenceable(296) %10) #3
  %50 = call noundef nonnull align 8 dereferenceable(24) ptr @_ZNK19OpenColorIO_v2_5dev9CDLOpData14getPowerParamsEv(ptr noundef nonnull align 8 dereferenceable(256) %49)
  store ptr %50, ptr %9, align 8, !tbaa !99
  %51 = load ptr, ptr %9, align 8, !tbaa !99
  %52 = call noundef double @_ZNK19OpenColorIO_v2_5dev9CDLOpData13ChannelParamsixEj(ptr noundef nonnull align 8 dereferenceable(24) %51, i32 noundef 0)
  %53 = load ptr, ptr %4, align 8, !tbaa !96
  %54 = getelementptr inbounds double, ptr %53, i64 6
  store double %52, ptr %54, align 8, !tbaa !98
  %55 = load ptr, ptr %9, align 8, !tbaa !99
  %56 = call noundef double @_ZNK19OpenColorIO_v2_5dev9CDLOpData13ChannelParamsixEj(ptr noundef nonnull align 8 dereferenceable(24) %55, i32 noundef 1)
  %57 = load ptr, ptr %4, align 8, !tbaa !96
  %58 = getelementptr inbounds double, ptr %57, i64 7
  store double %56, ptr %58, align 8, !tbaa !98
  %59 = load ptr, ptr %9, align 8, !tbaa !99
  %60 = call noundef double @_ZNK19OpenColorIO_v2_5dev9CDLOpData13ChannelParamsixEj(ptr noundef nonnull align 8 dereferenceable(24) %59, i32 noundef 2)
  %61 = load ptr, ptr %4, align 8, !tbaa !96
  %62 = getelementptr inbounds double, ptr %61, i64 8
  store double %60, ptr %62, align 8, !tbaa !98
  call void @llvm.lifetime.end.p0(i64 8, ptr %9) #3
  call void @llvm.lifetime.end.p0(i64 8, ptr %8) #3
  call void @llvm.lifetime.end.p0(i64 8, ptr %7) #3
  ret void

63:                                               ; preds = %16
  %64 = load ptr, ptr %5, align 8
  %65 = load i32, ptr %6, align 4
  %66 = insertvalue { ptr, i32 } poison, ptr %64, 0
  %67 = insertvalue { ptr, i32 } %66, i32 %65, 1
  resume { ptr, i32 } %67
}